target datalayout = "e-m:e-p270:32:32-p271:32:32-p272:64:64-i64:64-i128:128-f80:128-n8:16:32:64-S128"
target triple = "x86_64-pc-linux-gnu"

%struct.Fra_Sml_t_ = type { ptr, i32, i32, i32, i32, i32, i32, i32, i32, [0 x i32] }

; Function Attrs: inlinehint nounwind uwtable
define internal i32 @Aig_WordCountOnes(i32 noundef %0) #2 {
  %2 = alloca i32, align 4
  store i32 %0, ptr %2, align 4, !tbaa !8
  %3 = load i32, ptr %2, align 4, !tbaa !8
  %4 = and i32 %3, 1431655765
  %5 = load i32, ptr %2, align 4, !tbaa !8
  %6 = lshr i32 %5, 1
  %7 = and i32 %6, 1431655765
  %8 = add i32 %4, %7
  store i32 %8, ptr %2, align 4, !tbaa !8
  %9 = load i32, ptr %2, align 4, !tbaa !8
  %10 = and i32 %9, 858993459
  %11 = load i32, ptr %2, align 4, !tbaa !8
  %12 = lshr i32 %11, 2
  %13 = and i32 %12, 858993459
  %14 = add i32 %10, %13
  store i32 %14, ptr %2, align 4, !tbaa !8
  %15 = load i32, ptr %2, align 4, !tbaa !8
  %16 = and i32 %15, 252645135
  %17 = load i32, ptr %2, align 4, !tbaa !8
  %18 = lshr i32 %17, 4
  %19 = and i32 %18, 252645135
  %20 = add i32 %16, %19
  store i32 %20, ptr %2, align 4, !tbaa !8
  %21 = load i32, ptr %2, align 4, !tbaa !8
  %22 = and i32 %21, 16711935
  %23 = load i32, ptr %2, align 4, !tbaa !8
  %24 = lshr i32 %23, 8
  %25 = and i32 %24, 16711935
  %26 = add i32 %22, %25
  store i32 %26, ptr %2, align 4, !tbaa !8
  %27 = load i32, ptr %2, align 4, !tbaa !8
  %28 = and i32 %27, 65535
  %29 = load i32, ptr %2, align 4, !tbaa !8
  %30 = lshr i32 %29, 16
  %31 = add i32 %28, %30
  ret i32 %31
}

; Function Attrs: inlinehint nounwind uwtable
define internal ptr @Fra_ObjSim(ptr noundef %0, i32 noundef %1) #2 {
  %3 = alloca ptr, align 8
  %4 = alloca i32, align 4
  store ptr %0, ptr %3, align 8, !tbaa !35
  store i32 %1, ptr %4, align 4, !tbaa !8
  %5 = load ptr, ptr %3, align 8, !tbaa !35
  %6 = getelementptr inbounds nuw %struct.Fra_Sml_t_, ptr %5, i32 0, i32 9
  %7 = getelementptr inbounds [0 x i32], ptr %6, i64 0, i64 0
  %8 = load ptr, ptr %3, align 8, !tbaa !35
  %9 = getelementptr inbounds nuw %struct.Fra_Sml_t_, ptr %8, i32 0, i32 4
  %10 = load i32, ptr %9, align 4, !tbaa !32
  %11 = load i32, ptr %4, align 4, !tbaa !8
  %12 = mul nsw i32 %10, %11
  %13 = sext i32 %12 to i64
  %14 = getelementptr inbounds i32, ptr %7, i64 %13
  ret ptr %14
}

; Function Attrs: nounwind uwtable
define i32 @Fra_SmlNodeNotEquWeight(ptr noundef %0, i32 noundef %1, i32 noundef %2) #0 {
  %4 = alloca ptr, align 8
  %5 = alloca i32, align 4
  %6 = alloca i32, align 4
  %7 = alloca ptr, align 8
  %8 = alloca ptr, align 8
  %9 = alloca i32, align 4
  %10 = alloca i32, align 4
  store ptr %0, ptr %4, align 8, !tbaa !35
  store i32 %1, ptr %5, align 4, !tbaa !8
  store i32 %2, ptr %6, align 4, !tbaa !8
  call void @llvm.lifetime.start.p0(i64 8, ptr %7) #8
  call void @llvm.lifetime.start.p0(i64 8, ptr %8) #8
  call void @llvm.lifetime.start.p0(i64 4, ptr %9) #8
  call void @llvm.lifetime.start.p0(i64 4, ptr %10) #8
  store i32 0, ptr %10, align 4, !tbaa !8
  %11 = load ptr, ptr %4, align 8, !tbaa !35
  %12 = load i32, ptr %5, align 4, !tbaa !8
  %13 = call ptr @Fra_ObjSim(ptr noundef %11, i32 noundef %12)
  store ptr %13, ptr %7, align 8, !tbaa !29
  %14 = load ptr, ptr %4, align 8, !tbaa !35
  %15 = load i32, ptr %6, align 4, !tbaa !8
  %16 = call ptr @Fra_ObjSim(ptr noundef %14, i32 noundef %15)
  store ptr %16, ptr %8, align 8, !tbaa !29
  %17 = load ptr, ptr %4, align 8, !tbaa !35
  %18 = getelementptr inbounds nuw %struct.Fra_Sml_t_, ptr %17, i32 0, i32 5
  %19 = load i32, ptr %18, align 8, !tbaa !30
  store i32 %19, ptr %9, align 4, !tbaa !8
  br label %20

20:                                               ; preds = %41, %3
  %21 = load i32, ptr %9, align 4, !tbaa !8
  %22 = load ptr, ptr %4, align 8, !tbaa !35
  %23 = getelementptr inbounds nuw %struct.Fra_Sml_t_, ptr %22, i32 0, i32 4
  %24 = load i32, ptr %23, align 4, !tbaa !32
  %25 = icmp slt i32 %21, %24
  br i1 %25, label %26, label %44

26:                                               ; preds = %20
  %27 = load ptr, ptr %7, align 8, !tbaa !29
  %28 = load i32, ptr %9, align 4, !tbaa !8
  %29 = sext i32 %28 to i64
  %30 = getelementptr inbounds i32, ptr %27, i64 %29
  %31 = load i32, ptr %30, align 4, !tbaa !8
  %32 = load ptr, ptr %8, align 8, !tbaa !29
  %33 = load i32, ptr %9, align 4, !tbaa !8
  %34 = sext i32 %33 to i64
  %35 = getelementptr inbounds i32, ptr %32, i64 %34
  %36 = load i32, ptr %35, align 4, !tbaa !8
  %37 = xor i32 %31, %36
  %38 = call i32 @Aig_WordCountOnes(i32 noundef %37)
  %39 = load i32, ptr %10, align 4, !tbaa !8
  %40 = add nsw i32 %39, %38
  store i32 %40, ptr %10, align 4, !tbaa !8
  br label %41

41:                                               ; preds = %26
  %42 = load i32, ptr %9, align 4, !tbaa !8
  %43 = add nsw i32 %42, 1
  store i32 %43, ptr %9, align 4, !tbaa !8
  br label %20, !llvm.loop !38

44:                                               ; preds = %20
  %45 = load i32, ptr %10, align 4, !tbaa !8
  call void @llvm.lifetime.end.p0(i64 4, ptr %10) #8
  call void @llvm.lifetime.end.p0(i64 4, ptr %9) #8
  call void @llvm.lifetime.end.p0(i64 8, ptr %8) #8
  call void @llvm.lifetime.end.p0(i64 8, ptr %7) #8
  ret i32 %45
}