; Function Attrs: nofree norecurse nosync nounwind memory(argmem: read) uwtable
define i32 @Fra_SmlNodeNotEquWeight(ptr noundef readonly captures(none) %0, i32 noundef %1, i32 noundef %2) local_unnamed_addr #2 {
  %4 = getelementptr inbounds nuw i8, ptr %0, i64 40
  %5 = getelementptr inbounds nuw i8, ptr %0, i64 20
  %6 = load i32, ptr %5, align 4, !tbaa !25
  %7 = mul nsw i32 %6, %1
  %8 = sext i32 %7 to i64
  %9 = getelementptr inbounds i32, ptr %4, i64 %8
  %10 = mul nsw i32 %6, %2
  %11 = sext i32 %10 to i64
  %12 = getelementptr inbounds i32, ptr %4, i64 %11
  %13 = getelementptr inbounds nuw i8, ptr %0, i64 24
  %14 = load i32, ptr %13, align 8, !tbaa !27
  %15 = icmp slt i32 %14, %6
  br i1 %15, label %.lr.ph.preheader, label %._crit_edge

.lr.ph.preheader:                                 ; preds = %3
  %16 = sext i32 %14 to i64
  %wide.trip.count = sext i32 %6 to i64
  br label %.lr.ph

.lr.ph:                                           ; preds = %.lr.ph.preheader, %.lr.ph
  %indvars.iv = phi i64 [ %16, %.lr.ph.preheader ], [ %indvars.iv.next, %.lr.ph ]
  %.015 = phi i32 [ 0, %.lr.ph.preheader ], [ %41, %.lr.ph ]
  %17 = getelementptr inbounds i32, ptr %9, i64 %indvars.iv
  %18 = load i32, ptr %17, align 4, !tbaa !28
  %19 = getelementptr inbounds i32, ptr %12, i64 %indvars.iv
  %20 = load i32, ptr %19, align 4, !tbaa !28
  %21 = xor i32 %20, %18
  %22 = and i32 %21, 1431655765
  %23 = lshr i32 %21, 1
  %24 = and i32 %23, 1431655765
  %25 = add nuw i32 %24, %22
  %26 = and i32 %25, 858993459
  %27 = lshr i32 %25, 2
  %28 = and i32 %27, 858993459
  %29 = add nuw nsw i32 %28, %26
  %30 = and i32 %29, 117901063
  %31 = lshr i32 %29, 4
  %32 = and i32 %31, 117901063
  %33 = add nuw nsw i32 %32, %30
  %34 = and i32 %33, 983055
  %35 = lshr i32 %33, 8
  %36 = and i32 %35, 983055
  %37 = add nuw nsw i32 %36, %34
  %38 = and i32 %37, 31
  %39 = lshr i32 %37, 16
  %40 = add nuw nsw i32 %39, %.015
  %41 = add nuw nsw i32 %40, %38
  %indvars.iv.next = add nsw i64 %indvars.iv, 1
  %exitcond.not = icmp eq i64 %indvars.iv.next, %wide.trip.count
  br i1 %exitcond.not, label %._crit_edge, label %.lr.ph, !llvm.loop !33

._crit_edge:                                      ; preds = %.lr.ph, %3
  %.0.lcssa = phi i32 [ 0, %3 ], [ %41, %.lr.ph ]
  ret i32 %.0.lcssa
}